target datalayout = "e-m:e-p270:32:32-p271:32:32-p272:64:64-i64:64-i128:128-f80:128-n8:16:32:64-S128"
target triple = "x86_64-pc-linux-gnu"

%struct.AVProbeData = type { ptr, ptr, i32, ptr }

@.str.2 = private unnamed_addr constant [5 x i8] c"FORM\00", align 1
@.str.3 = private unnamed_addr constant [5 x i8] c"DS16\00", align 1

; Function Attrs: alwaysinline nounwind willreturn memory(none) uwtable
define internal i32 @av_bswap32(i32 noundef %0) #2 {
  %2 = alloca i32, align 4
  store i32 %0, ptr %2, align 4, !tbaa !16
  %3 = load i32, ptr %2, align 4, !tbaa !16
  %4 = shl i32 %3, 8
  %5 = and i32 %4, 65280
  %6 = load i32, ptr %2, align 4, !tbaa !16
  %7 = lshr i32 %6, 8
  %8 = and i32 %7, 255
  %9 = or i32 %5, %8
  %10 = shl i32 %9, 16
  %11 = load i32, ptr %2, align 4, !tbaa !16
  %12 = lshr i32 %11, 16
  %13 = shl i32 %12, 8
  %14 = and i32 %13, 65280
  %15 = load i32, ptr %2, align 4, !tbaa !16
  %16 = lshr i32 %15, 16
  %17 = lshr i32 %16, 8
  %18 = and i32 %17, 255
  %19 = or i32 %14, %18
  %20 = or i32 %10, %19
  ret i32 %20
}

; Function Attrs: nounwind uwtable
define internal i32 @nsp_probe(ptr noundef %0) #0 {
  %2 = alloca i32, align 4
  %3 = alloca ptr, align 8
  store ptr %0, ptr %3, align 8, !tbaa !4
  %4 = load ptr, ptr %3, align 8, !tbaa !4
  %5 = getelementptr inbounds nuw %struct.AVProbeData, ptr %4, i32 0, i32 1
  %6 = load ptr, ptr %5, align 8, !tbaa !9
  %7 = load i32, ptr %6, align 1, !tbaa !13
  %8 = call i32 @av_bswap32(i32 noundef %7) #5
  %9 = load i32, ptr @.str.2, align 1, !tbaa !13
  %10 = call i32 @av_bswap32(i32 noundef %9) #5
  %11 = icmp eq i32 %8, %10
  br i1 %11, label %12, label %23

12:                                               ; preds = %1
  %13 = load ptr, ptr %3, align 8, !tbaa !4
  %14 = getelementptr inbounds nuw %struct.AVProbeData, ptr %13, i32 0, i32 1
  %15 = load ptr, ptr %14, align 8, !tbaa !9
  %16 = getelementptr inbounds i8, ptr %15, i64 4
  %17 = load i32, ptr %16, align 1, !tbaa !13
  %18 = call i32 @av_bswap32(i32 noundef %17) #5
  %19 = load i32, ptr @.str.3, align 1, !tbaa !13
  %20 = call i32 @av_bswap32(i32 noundef %19) #5
  %21 = icmp eq i32 %18, %20
  br i1 %21, label %22, label %23

22:                                               ; preds = %12
  store i32 100, ptr %2, align 4
  br label %24

23:                                               ; preds = %12, %1
  store i32 0, ptr %2, align 4
  br label %24

24:                                               ; preds = %23, %22
  %25 = load i32, ptr %2, align 4
  ret i32 %25
}