; Function Attrs: mustprogress nofree norecurse nosync nounwind willreturn memory(read, inaccessiblemem: none) uwtable
define internal range(i32 0, 101) i32 @nsp_probe(ptr noundef readonly captures(none) %0) #0 {
  %2 = getelementptr inbounds nuw i8, ptr %0, i64 8
  %3 = load ptr, ptr %2, align 8, !tbaa !4
  %4 = load i32, ptr %3, align 1, !tbaa !11
  %5 = icmp eq i32 %4, 1297239878
  br i1 %5, label %6, label %10

6:                                                ; preds = %1
  %7 = getelementptr inbounds nuw i8, ptr %3, i64 4
  %8 = load i32, ptr %7, align 1, !tbaa !11
  %9 = icmp eq i32 %8, 909202244
  br i1 %9, label %11, label %10

10:                                               ; preds = %6, %1
  br label %11

11:                                               ; preds = %6, %10
  %.0 = phi i32 [ 0, %10 ], [ 100, %6 ]
  ret i32 %.0
}